target datalayout = "e-m:e-p270:32:32-p271:32:32-p272:64:64-i64:64-i128:128-f80:128-n8:16:32:64-S128"
target triple = "x86_64-pc-linux-gnu"

%struct.H5HF_hdr_t = type { %struct.H5C_cache_entry_t, i32, i32, i8, i8, i8, i8, %struct.H5HF_dtable_t, i64, i64, i32, i64, i64, %struct.H5O_pline_t, i64, i32, i64, i64, i64, i64, i64, i64, i64, i64, i64, i64, i64, i32, ptr, i64, i8, i8, i8, ptr, i32, ptr, %struct.H5HF_block_iter_t, ptr, i64, i8, i8, i64, i8, i8, i8, i8 }
%struct.H5C_cache_entry_t = type { ptr, i64, i64, ptr, i8, ptr, i8, i8, i8, i8, i32, i8, i8, i8, i8, i8, i32, ptr, i32, i32, i32, i32, i32, i8, i8, ptr, ptr, ptr, ptr, ptr, ptr, i8, i32, i8, i64, ptr, i64, i64, i32, i8, i32, i32, i8, ptr, ptr, ptr }
%struct.H5HF_dtable_t = type { %struct.H5HF_dtable_cparam_t, i64, i32, i32, i32, i32, i32, i32, i32, i64, ptr, ptr, ptr, ptr }
%struct.H5HF_dtable_cparam_t = type { i32, i64, i64, i32, i32 }
%struct.H5O_pline_t = type { %struct.H5O_shared_t, i32, i64, i64, ptr }
%struct.H5O_shared_t = type { i32, ptr, i32, %union.anon }
%union.anon = type { %struct.H5O_mesg_loc_t }
%struct.H5O_mesg_loc_t = type { i32, i64 }
%struct.H5HF_block_iter_t = type { i8, ptr }

@.str = private unnamed_addr constant [102 x i8] c"generated/home/dtcxzyw/WorkSpace/Projects/compilers/llvm-opt-benchmark/bench/hdf5/hdf5/src/H5HFtiny.c\00", align 1
@__func__.H5HF__tiny_insert = private unnamed_addr constant [18 x i8] c"H5HF__tiny_insert\00", align 1
@H5E_HEAP_g = external global i64, align 8
@H5E_CANTDIRTY_g = external global i64, align 8
@.str.1 = private unnamed_addr constant [32 x i8] c"can't mark heap header as dirty\00", align 1

; Function Attrs: nounwind uwtable
define i32 @H5HF__tiny_insert(ptr noundef %0, i64 noundef %1, ptr noundef %2, ptr noundef %3) #0 {
  %5 = alloca ptr, align 8
  %6 = alloca i64, align 8
  %7 = alloca ptr, align 8
  %8 = alloca ptr, align 8
  %9 = alloca ptr, align 8
  %10 = alloca i64, align 8
  %11 = alloca i32, align 4
  %12 = alloca i8, align 1
  store ptr %0, ptr %5, align 8
  store i64 %1, ptr %6, align 8
  store ptr %2, ptr %7, align 8
  store ptr %3, ptr %8, align 8
  %13 = load ptr, ptr %8, align 8
  store ptr %13, ptr %9, align 8
  store i32 0, ptr %11, align 4
  store i8 0, ptr %12, align 1
  %14 = load i64, ptr %6, align 8
  %15 = sub i64 %14, 1
  store i64 %15, ptr %10, align 8
  %16 = load ptr, ptr %5, align 8
  %17 = getelementptr inbounds %struct.H5HF_hdr_t, ptr %16, i32 0, i32 42
  %18 = load i8, ptr %17, align 8
  %19 = trunc i8 %18 to i1
  br i1 %19, label %27, label %20

20:                                               ; preds = %4
  %21 = load i64, ptr %10, align 8
  %22 = and i64 %21, 15
  %23 = or i64 32, %22
  %24 = trunc i64 %23 to i8
  %25 = load ptr, ptr %9, align 8
  %26 = getelementptr inbounds i8, ptr %25, i32 1
  store ptr %26, ptr %9, align 8
  store i8 %24, ptr %25, align 1
  br label %40

27:                                               ; preds = %4
  %28 = load i64, ptr %10, align 8
  %29 = and i64 %28, 3840
  %30 = lshr i64 %29, 8
  %31 = or i64 32, %30
  %32 = trunc i64 %31 to i8
  %33 = load ptr, ptr %9, align 8
  %34 = getelementptr inbounds i8, ptr %33, i32 1
  store ptr %34, ptr %9, align 8
  store i8 %32, ptr %33, align 1
  %35 = load i64, ptr %10, align 8
  %36 = and i64 %35, 255
  %37 = trunc i64 %36 to i8
  %38 = load ptr, ptr %9, align 8
  %39 = getelementptr inbounds i8, ptr %38, i32 1
  store ptr %39, ptr %9, align 8
  store i8 %37, ptr %38, align 1
  br label %40

40:                                               ; preds = %27, %20
  %41 = load ptr, ptr %9, align 8
  %42 = load ptr, ptr %7, align 8
  %43 = load i64, ptr %6, align 8
  call void @llvm.memcpy.p0.p0.i64(ptr align 1 %41, ptr align 1 %42, i64 %43, i1 false)
  %44 = load ptr, ptr %9, align 8
  %45 = load i64, ptr %6, align 8
  %46 = getelementptr inbounds i8, ptr %44, i64 %45
  %47 = load ptr, ptr %5, align 8
  %48 = getelementptr inbounds %struct.H5HF_hdr_t, ptr %47, i32 0, i32 1
  %49 = load i32, ptr %48, align 8
  %50 = zext i32 %49 to i64
  %51 = load ptr, ptr %5, align 8
  %52 = getelementptr inbounds %struct.H5HF_hdr_t, ptr %51, i32 0, i32 42
  %53 = load i8, ptr %52, align 8
  %54 = trunc i8 %53 to i1
  %55 = zext i1 %54 to i64
  %56 = add i64 1, %55
  %57 = load i64, ptr %6, align 8
  %58 = add i64 %56, %57
  %59 = sub i64 %50, %58
  call void @llvm.memset.p0.i64(ptr align 1 %46, i8 0, i64 %59, i1 false)
  %60 = load i64, ptr %6, align 8
  %61 = load ptr, ptr %5, align 8
  %62 = getelementptr inbounds %struct.H5HF_hdr_t, ptr %61, i32 0, i32 22
  %63 = load i64, ptr %62, align 8
  %64 = add i64 %63, %60
  store i64 %64, ptr %62, align 8
  %65 = load ptr, ptr %5, align 8
  %66 = getelementptr inbounds %struct.H5HF_hdr_t, ptr %65, i32 0, i32 23
  %67 = load i64, ptr %66, align 8
  %68 = add i64 %67, 1
  store i64 %68, ptr %66, align 8
  %69 = load ptr, ptr %5, align 8
  %70 = call i32 @H5HF__hdr_dirty(ptr noundef %69)
  %71 = icmp slt i32 %70, 0
  br i1 %71, label %72, label %87

72:                                               ; preds = %40
  br label %73

73:                                               ; preds = %72
  br label %74

74:                                               ; preds = %73
  br label %75

75:                                               ; preds = %74
  %76 = load i64, ptr @H5E_HEAP_g, align 8
  %77 = load i64, ptr @H5E_CANTDIRTY_g, align 8
  %78 = call i32 (ptr, ptr, i32, i64, i64, ptr, ...) @H5E_printf_stack(ptr noundef @.str, ptr noundef @__func__.H5HF__tiny_insert, i32 noundef 163, i64 noundef %76, i64 noundef %77, ptr noundef @.str.1)
  br label %79

79:                                               ; preds = %75
  store i8 1, ptr %12, align 1
  %80 = load i8, ptr %12, align 1
  %81 = trunc i8 %80 to i1
  %82 = zext i1 %81 to i8
  store i8 %82, ptr %12, align 1
  br label %83

83:                                               ; preds = %79
  br label %84

84:                                               ; preds = %83
  store i32 -1, ptr %11, align 4
  br label %88

85:                                               ; No predecessors!
  br label %86

86:                                               ; preds = %85
  br label %87

87:                                               ; preds = %86, %40
  br label %88

88:                                               ; preds = %87, %84
  %89 = load i32, ptr %11, align 4
  ret i32 %89
}