; Function Attrs: nounwind uwtable
define range(i32 -1, 1) i32 @H5HF__tiny_insert(ptr noundef %0, i64 noundef %1, ptr nocapture noundef readonly %2, ptr nocapture noundef writeonly %3) local_unnamed_addr #1 {
  %5 = add i64 %1, -1
  %6 = getelementptr inbounds i8, ptr %0, i64 696
  %7 = load i8, ptr %6, align 8
  %8 = trunc i8 %7 to i1
  br i1 %8, label %11, label %9

9:                                                ; preds = %4
  %10 = getelementptr inbounds i8, ptr %3, i64 1
  br label %16

11:                                               ; preds = %4
  %12 = lshr i64 %5, 8
  %13 = getelementptr inbounds i8, ptr %3, i64 1
  %14 = trunc i64 %5 to i8
  %15 = getelementptr inbounds i8, ptr %3, i64 2
  store i8 %14, ptr %13, align 1
  br label %16

16:                                               ; preds = %11, %9
  %.sink.in.in.in = phi i64 [ %12, %11 ], [ %5, %9 ]
  %.022 = phi ptr [ %15, %11 ], [ %10, %9 ]
  %.sink.in.in = trunc i64 %.sink.in.in.in to i8
  %.sink.in = and i8 %.sink.in.in, 15
  %.sink = or disjoint i8 %.sink.in, 32
  store i8 %.sink, ptr %3, align 1
  tail call void @llvm.memcpy.p0.p0.i64(ptr nonnull align 1 %.022, ptr align 1 %2, i64 %1, i1 false)
  %17 = getelementptr inbounds i8, ptr %.022, i64 %1
  %18 = getelementptr inbounds i8, ptr %0, i64 248
  %19 = load i32, ptr %18, align 8
  %20 = zext i32 %19 to i64
  %21 = load i8, ptr %6, align 8
  %22 = and i8 %21, 1
  %narrow = add nuw nsw i8 %22, 1
  %23 = zext nneg i8 %narrow to i64
  %24 = add i64 %23, %1
  %25 = sub i64 %20, %24
  tail call void @llvm.memset.p0.i64(ptr nonnull align 1 %17, i8 0, i64 %25, i1 false)
  %26 = getelementptr inbounds i8, ptr %0, i64 552
  %27 = load <2 x i64>, ptr %26, align 8
  %28 = insertelement <2 x i64> <i64 poison, i64 1>, i64 %1, i64 0
  %29 = add <2 x i64> %27, %28
  store <2 x i64> %29, ptr %26, align 8
  %30 = tail call i32 @H5HF__hdr_dirty(ptr noundef nonnull %0) #5
  %31 = icmp slt i32 %30, 0
  br i1 %31, label %32, label %36

32:                                               ; preds = %16
  %33 = load i64, ptr @H5E_HEAP_g, align 8
  %34 = load i64, ptr @H5E_CANTDIRTY_g, align 8
  %35 = tail call i32 (ptr, ptr, i32, i64, i64, ptr, ...) @H5E_printf_stack(ptr noundef nonnull @.str, ptr noundef nonnull @__func__.H5HF__tiny_insert, i32 noundef 163, i64 noundef %33, i64 noundef %34, ptr noundef nonnull @.str.1) #5
  br label %36

36:                                               ; preds = %16, %32
  %.0 = phi i32 [ -1, %32 ], [ 0, %16 ]
  ret i32 %.0
}